target datalayout = "e-m:e-p270:32:32-p271:32:32-p272:64:64-i64:64-i128:128-f80:128-n8:16:32:64-S128"
target triple = "x86_64-pc-linux-gnu"

%struct.pm_lex_mode = type { i32, %union.anon, ptr }
%union.anon = type { %struct.anon.3 }
%struct.anon.3 = type { %struct.pm_heredoc_lex_mode_t, ptr, ptr, i8 }
%struct.pm_heredoc_lex_mode_t = type { ptr, i64, i32, i32 }
%struct.pm_parser = type { i32, i32, i32, i32, i32, i32, i32, %struct.anon, ptr, ptr, %struct.pm_token_t, %struct.pm_token_t, ptr, ptr, %struct.pm_list_t, %struct.pm_list_t, %struct.pm_location_t, %struct.pm_list_t, %struct.pm_list_t, ptr, ptr, ptr, ptr, ptr, ptr, ptr, %struct.pm_string_t, %struct.pm_constant_pool_t, %struct.pm_newline_list_t, i16, %struct.pm_string_t, i32, ptr, ptr, i32, i8, i8, i8, i8, i8, i8, i8, i8, i8, i8, i8, i8, i8 }
%struct.anon = type { ptr, [4 x %struct.pm_lex_mode], i64 }
%struct.pm_token_t = type { i32, ptr, ptr }
%struct.pm_location_t = type { ptr, ptr }
%struct.pm_list_t = type { i64, ptr, ptr }
%struct.pm_constant_pool_t = type { ptr, ptr, i32, i32 }
%struct.pm_newline_list_t = type { ptr, i64, i64, ptr }
%struct.pm_string_t = type { ptr, i64, i32 }
%struct.parse_regular_expression_error_data_t = type { ptr, ptr, ptr, i8 }

; Function Attrs: nounwind sspstrong uwtable
define internal void @parse_regular_expression_error(ptr noundef %0, ptr noundef %1, ptr noundef %2, ptr noundef %3) #0 {
  %5 = alloca ptr, align 8
  %6 = alloca ptr, align 8
  %7 = alloca ptr, align 8
  %8 = alloca ptr, align 8
  %9 = alloca ptr, align 8
  %10 = alloca %struct.pm_location_t, align 8
  %11 = alloca %struct.pm_location_t, align 8
  %12 = alloca %struct.pm_location_t, align 8
  store ptr %0, ptr %5, align 8, !tbaa !12
  store ptr %1, ptr %6, align 8, !tbaa !12
  store ptr %2, ptr %7, align 8, !tbaa !12
  store ptr %3, ptr %8, align 8, !tbaa !57
  call void @llvm.lifetime.start.p0(i64 8, ptr %9) #15
  %13 = load ptr, ptr %8, align 8, !tbaa !57
  store ptr %13, ptr %9, align 8, !tbaa !57
  call void @llvm.lifetime.start.p0(i64 16, ptr %10) #15
  %14 = load ptr, ptr %9, align 8, !tbaa !57
  %15 = getelementptr inbounds nuw %struct.parse_regular_expression_error_data_t, ptr %14, i32 0, i32 3
  %16 = load i8, ptr %15, align 8, !tbaa !785, !range !67, !noundef !68
  %17 = trunc i8 %16 to i1
  br i1 %17, label %18, label %23

18:                                               ; preds = %4
  %19 = getelementptr inbounds nuw %struct.pm_location_t, ptr %11, i32 0, i32 0
  %20 = load ptr, ptr %5, align 8, !tbaa !12
  store ptr %20, ptr %19, align 8, !tbaa !152
  %21 = getelementptr inbounds nuw %struct.pm_location_t, ptr %11, i32 0, i32 1
  %22 = load ptr, ptr %6, align 8, !tbaa !12
  store ptr %22, ptr %21, align 8, !tbaa !153
  call void @llvm.memcpy.p0.p0.i64(ptr align 8 %10, ptr align 8 %11, i64 16, i1 false), !tbaa.struct !241
  br label %32

23:                                               ; preds = %4
  %24 = getelementptr inbounds nuw %struct.pm_location_t, ptr %12, i32 0, i32 0
  %25 = load ptr, ptr %9, align 8, !tbaa !57
  %26 = getelementptr inbounds nuw %struct.parse_regular_expression_error_data_t, ptr %25, i32 0, i32 1
  %27 = load ptr, ptr %26, align 8, !tbaa !782
  store ptr %27, ptr %24, align 8, !tbaa !152
  %28 = getelementptr inbounds nuw %struct.pm_location_t, ptr %12, i32 0, i32 1
  %29 = load ptr, ptr %9, align 8, !tbaa !57
  %30 = getelementptr inbounds nuw %struct.parse_regular_expression_error_data_t, ptr %29, i32 0, i32 2
  %31 = load ptr, ptr %30, align 8, !tbaa !784
  store ptr %31, ptr %28, align 8, !tbaa !153
  call void @llvm.memcpy.p0.p0.i64(ptr align 8 %10, ptr align 8 %12, i64 16, i1 false), !tbaa.struct !241
  br label %32

32:                                               ; preds = %23, %18
  %33 = load ptr, ptr %9, align 8, !tbaa !57
  %34 = getelementptr inbounds nuw %struct.parse_regular_expression_error_data_t, ptr %33, i32 0, i32 0
  %35 = load ptr, ptr %34, align 8, !tbaa !779
  %36 = getelementptr inbounds nuw %struct.pm_parser, ptr %35, i32 0, i32 18
  %37 = getelementptr inbounds nuw %struct.pm_location_t, ptr %10, i32 0, i32 0
  %38 = load ptr, ptr %37, align 8, !tbaa !152
  %39 = getelementptr inbounds nuw %struct.pm_location_t, ptr %10, i32 0, i32 1
  %40 = load ptr, ptr %39, align 8, !tbaa !153
  %41 = load ptr, ptr %7, align 8, !tbaa !12
  %42 = call zeroext i1 (ptr, ptr, ptr, i32, ...) @pm_diagnostic_list_append_format(ptr noundef %36, ptr noundef %38, ptr noundef %40, i32 noundef 245, ptr noundef %41)
  call void @llvm.lifetime.end.p0(i64 16, ptr %10) #15
  call void @llvm.lifetime.end.p0(i64 8, ptr %9) #15
  ret void
}