; Function Attrs: nounwind sspstrong uwtable
define internal void @parse_regular_expression_error(ptr noundef %0, ptr noundef %1, ptr noundef %2, ptr noundef readonly captures(none) %3) #1 {
  %5 = getelementptr inbounds nuw i8, ptr %3, i64 24
  %6 = load i8, ptr %5, align 8, !tbaa !562, !range !44, !noundef !45
  %7 = trunc nuw i8 %6 to i1
  br i1 %7, label %13, label %8

8:                                                ; preds = %4
  %9 = getelementptr inbounds nuw i8, ptr %3, i64 8
  %10 = load ptr, ptr %9, align 8, !tbaa !558
  %11 = getelementptr inbounds nuw i8, ptr %3, i64 16
  %12 = load ptr, ptr %11, align 8, !tbaa !560
  br label %13

13:                                               ; preds = %4, %8
  %.sroa.03.0 = phi ptr [ %10, %8 ], [ %0, %4 ]
  %.sroa.5.0 = phi ptr [ %12, %8 ], [ %1, %4 ]
  %14 = load ptr, ptr %3, align 8, !tbaa !554
  %15 = getelementptr inbounds nuw i8, ptr %14, i64 472
  %16 = tail call zeroext i1 (ptr, ptr, ptr, i32, ...) @pm_diagnostic_list_append_format(ptr noundef nonnull %15, ptr noundef %.sroa.03.0, ptr noundef %.sroa.5.0, i32 noundef 245, ptr noundef %2) #31
  ret void
}